; Function Attrs: inlinehint nounwind uwtable
define internal ptr @git_pathdup(ptr readnone captures(none) %0, ...) unnamed_addr #5 {
  %2 = alloca %struct.strbuf, align 8
  %3 = alloca [1 x %struct.__va_list_tag], align 16
  call void @llvm.lifetime.start.p0(i64 24, ptr nonnull %2) #20
  call void @llvm.memcpy.p0.p0.i64(ptr noundef nonnull align 8 dereferenceable(24) %2, ptr noundef nonnull align 8 dereferenceable(24) @__const.git_pathdup.path, i64 24, i1 false)
  call void @llvm.lifetime.start.p0(i64 24, ptr nonnull %3) #20
  call void @llvm.va_start.p0(ptr nonnull %3)
  %4 = load ptr, ptr @the_repository, align 8, !tbaa !8
  call void @repo_git_pathv(ptr noundef %4, ptr noundef null, ptr noundef nonnull %2, ptr noundef nonnull @.str.219, ptr noundef nonnull %3) #20
  call void @llvm.va_end.p0(ptr nonnull %3)
  %5 = call ptr @strbuf_detach(ptr noundef nonnull %2, ptr noundef null) #20
  call void @llvm.lifetime.end.p0(i64 24, ptr nonnull %3) #20
  call void @llvm.lifetime.end.p0(i64 24, ptr nonnull %2) #20
  ret ptr %5
}